target datalayout = "e-m:e-p270:32:32-p271:32:32-p272:64:64-i64:64-i128:128-f80:128-n8:16:32:64-S128"
target triple = "x86_64-pc-linux-gnu"

; Function Attrs: nounwind uwtable
define internal float @sbr_sum_square_c(ptr noundef %0, i32 noundef %1) #1 {
  %3 = alloca ptr, align 8
  %4 = alloca i32, align 4
  %5 = alloca float, align 4
  %6 = alloca float, align 4
  %7 = alloca i32, align 4
  store ptr %0, ptr %3, align 8, !tbaa !21
  store i32 %1, ptr %4, align 4, !tbaa !23
  call void @llvm.lifetime.start.p0(i64 4, ptr %5) #5
  store float 0.000000e+00, ptr %5, align 4, !tbaa !25
  call void @llvm.lifetime.start.p0(i64 4, ptr %6) #5
  store float 0.000000e+00, ptr %6, align 4, !tbaa !25
  call void @llvm.lifetime.start.p0(i64 4, ptr %7) #5
  store i32 0, ptr %7, align 4, !tbaa !23
  br label %8

8:                                                ; preds = %77, %2
  %9 = load i32, ptr %7, align 4, !tbaa !23
  %10 = load i32, ptr %4, align 4, !tbaa !23
  %11 = icmp slt i32 %9, %10
  br i1 %11, label %12, label %80

12:                                               ; preds = %8
  %13 = load ptr, ptr %3, align 8, !tbaa !21
  %14 = load i32, ptr %7, align 4, !tbaa !23
  %15 = add nsw i32 %14, 0
  %16 = sext i32 %15 to i64
  %17 = getelementptr inbounds [2 x float], ptr %13, i64 %16
  %18 = getelementptr inbounds [2 x float], ptr %17, i64 0, i64 0
  %19 = load float, ptr %18, align 4, !tbaa !25
  %20 = load ptr, ptr %3, align 8, !tbaa !21
  %21 = load i32, ptr %7, align 4, !tbaa !23
  %22 = add nsw i32 %21, 0
  %23 = sext i32 %22 to i64
  %24 = getelementptr inbounds [2 x float], ptr %20, i64 %23
  %25 = getelementptr inbounds [2 x float], ptr %24, i64 0, i64 0
  %26 = load float, ptr %25, align 4, !tbaa !25
  %27 = load float, ptr %5, align 4, !tbaa !25
  %28 = call nsz float @llvm.fmuladd.f32(float %19, float %26, float %27)
  store float %28, ptr %5, align 4, !tbaa !25
  %29 = load ptr, ptr %3, align 8, !tbaa !21
  %30 = load i32, ptr %7, align 4, !tbaa !23
  %31 = add nsw i32 %30, 0
  %32 = sext i32 %31 to i64
  %33 = getelementptr inbounds [2 x float], ptr %29, i64 %32
  %34 = getelementptr inbounds [2 x float], ptr %33, i64 0, i64 1
  %35 = load float, ptr %34, align 4, !tbaa !25
  %36 = load ptr, ptr %3, align 8, !tbaa !21
  %37 = load i32, ptr %7, align 4, !tbaa !23
  %38 = add nsw i32 %37, 0
  %39 = sext i32 %38 to i64
  %40 = getelementptr inbounds [2 x float], ptr %36, i64 %39
  %41 = getelementptr inbounds [2 x float], ptr %40, i64 0, i64 1
  %42 = load float, ptr %41, align 4, !tbaa !25
  %43 = load float, ptr %6, align 4, !tbaa !25
  %44 = call nsz float @llvm.fmuladd.f32(float %35, float %42, float %43)
  store float %44, ptr %6, align 4, !tbaa !25
  %45 = load ptr, ptr %3, align 8, !tbaa !21
  %46 = load i32, ptr %7, align 4, !tbaa !23
  %47 = add nsw i32 %46, 1
  %48 = sext i32 %47 to i64
  %49 = getelementptr inbounds [2 x float], ptr %45, i64 %48
  %50 = getelementptr inbounds [2 x float], ptr %49, i64 0, i64 0
  %51 = load float, ptr %50, align 4, !tbaa !25
  %52 = load ptr, ptr %3, align 8, !tbaa !21
  %53 = load i32, ptr %7, align 4, !tbaa !23
  %54 = add nsw i32 %53, 1
  %55 = sext i32 %54 to i64
  %56 = getelementptr inbounds [2 x float], ptr %52, i64 %55
  %57 = getelementptr inbounds [2 x float], ptr %56, i64 0, i64 0
  %58 = load float, ptr %57, align 4, !tbaa !25
  %59 = load float, ptr %5, align 4, !tbaa !25
  %60 = call nsz float @llvm.fmuladd.f32(float %51, float %58, float %59)
  store float %60, ptr %5, align 4, !tbaa !25
  %61 = load ptr, ptr %3, align 8, !tbaa !21
  %62 = load i32, ptr %7, align 4, !tbaa !23
  %63 = add nsw i32 %62, 1
  %64 = sext i32 %63 to i64
  %65 = getelementptr inbounds [2 x float], ptr %61, i64 %64
  %66 = getelementptr inbounds [2 x float], ptr %65, i64 0, i64 1
  %67 = load float, ptr %66, align 4, !tbaa !25
  %68 = load ptr, ptr %3, align 8, !tbaa !21
  %69 = load i32, ptr %7, align 4, !tbaa !23
  %70 = add nsw i32 %69, 1
  %71 = sext i32 %70 to i64
  %72 = getelementptr inbounds [2 x float], ptr %68, i64 %71
  %73 = getelementptr inbounds [2 x float], ptr %72, i64 0, i64 1
  %74 = load float, ptr %73, align 4, !tbaa !25
  %75 = load float, ptr %6, align 4, !tbaa !25
  %76 = call nsz float @llvm.fmuladd.f32(float %67, float %74, float %75)
  store float %76, ptr %6, align 4, !tbaa !25
  br label %77

77:                                               ; preds = %12
  %78 = load i32, ptr %7, align 4, !tbaa !23
  %79 = add nsw i32 %78, 2
  store i32 %79, ptr %7, align 4, !tbaa !23
  br label %8, !llvm.loop !29

80:                                               ; preds = %8
  %81 = load float, ptr %5, align 4, !tbaa !25
  %82 = load float, ptr %6, align 4, !tbaa !25
  %83 = fadd nsz float %81, %82
  call void @llvm.lifetime.end.p0(i64 4, ptr %7) #5
  call void @llvm.lifetime.end.p0(i64 4, ptr %6) #5
  call void @llvm.lifetime.end.p0(i64 4, ptr %5) #5
  ret float %83
}