; Function Attrs: nofree norecurse nosync nounwind memory(argmem: read) uwtable
define internal float @sbr_sum_square_c(ptr noundef readonly captures(none) %0, i32 noundef %1) #2 {
  %3 = icmp sgt i32 %1, 0
  br i1 %3, label %.lr.ph.preheader, label %._crit_edge

.lr.ph.preheader:                                 ; preds = %2
  %4 = zext nneg i32 %1 to i64
  br label %.lr.ph

.lr.ph:                                           ; preds = %.lr.ph.preheader, %.lr.ph
  %indvars.iv = phi i64 [ 0, %.lr.ph.preheader ], [ %indvars.iv.next, %.lr.ph ]
  %.02427 = phi float [ 0.000000e+00, %.lr.ph.preheader ], [ %16, %.lr.ph ]
  %.02526 = phi float [ 0.000000e+00, %.lr.ph.preheader ], [ %13, %.lr.ph ]
  %5 = getelementptr inbounds nuw [2 x float], ptr %0, i64 %indvars.iv
  %6 = load float, ptr %5, align 4, !tbaa !19
  %7 = tail call nsz float @llvm.fmuladd.f32(float %6, float %6, float %.02526)
  %8 = getelementptr inbounds nuw i8, ptr %5, i64 4
  %9 = load float, ptr %8, align 4, !tbaa !19
  %10 = tail call nsz float @llvm.fmuladd.f32(float %9, float %9, float %.02427)
  %11 = getelementptr inbounds nuw i8, ptr %5, i64 8
  %12 = load float, ptr %11, align 4, !tbaa !19
  %13 = tail call nsz float @llvm.fmuladd.f32(float %12, float %12, float %7)
  %14 = getelementptr inbounds nuw i8, ptr %5, i64 12
  %15 = load float, ptr %14, align 4, !tbaa !19
  %16 = tail call nsz float @llvm.fmuladd.f32(float %15, float %15, float %10)
  %indvars.iv.next = add nuw nsw i64 %indvars.iv, 2
  %17 = icmp samesign ult i64 %indvars.iv.next, %4
  br i1 %17, label %.lr.ph, label %._crit_edge.loopexit, !llvm.loop !23

._crit_edge.loopexit:                             ; preds = %.lr.ph
  %18 = fadd nsz float %13, %16
  br label %._crit_edge

._crit_edge:                                      ; preds = %._crit_edge.loopexit, %2
  %19 = phi float [ 0.000000e+00, %2 ], [ %18, %._crit_edge.loopexit ]
  ret float %19
}